; Function Attrs: mustprogress nofree norecurse nosync nounwind memory(readwrite, inaccessiblemem: none) uwtable
define dso_local void @_ZN4absl24synchronization_internal11GraphCycles10RemoveEdgeENS0_7GraphIdES2_(ptr noundef nonnull readonly align 8 captures(none) dereferenceable(8) %0, i64 %1, i64 %2) local_unnamed_addr #8 align 2 {
  %4 = load ptr, ptr %0, align 8, !tbaa !4
  %.val18 = load ptr, ptr %4, align 8, !tbaa !19
  %5 = and i64 %1, 4294967295
  %6 = getelementptr inbounds nuw ptr, ptr %.val18, i64 %5
  %7 = load ptr, ptr %6, align 8, !tbaa !20
  %8 = getelementptr inbounds nuw i8, ptr %7, i64 4
  %9 = load i32, ptr %8, align 4, !tbaa !47
  %10 = lshr i64 %1, 32
  %11 = trunc nuw i64 %10 to i32
  %12 = icmp eq i32 %9, %11
  %13 = select i1 %12, ptr %7, ptr null
  %14 = and i64 %2, 4294967295
  %15 = getelementptr inbounds nuw ptr, ptr %.val18, i64 %14
  %16 = load ptr, ptr %15, align 8, !tbaa !20
  %17 = getelementptr inbounds nuw i8, ptr %16, i64 4
  %18 = load i32, ptr %17, align 4, !tbaa !47
  %19 = lshr i64 %2, 32
  %20 = trunc nuw i64 %19 to i32
  %21 = icmp eq i32 %18, %20
  %22 = select i1 %21, ptr %16, ptr null
  %23 = icmp ne ptr %13, null
  %24 = icmp ne ptr %22, null
  %or.cond = and i1 %23, %24
  br i1 %or.cond, label %25, label %_ZN4absl24synchronization_internal12_GLOBAL__N_17NodeSet5eraseEi.exit34

25:                                               ; preds = %3
  %26 = getelementptr inbounds nuw i8, ptr %13, i64 80
  %27 = trunc i64 %2 to i32
  %.val15 = load ptr, ptr %26, align 8
  %28 = getelementptr i8, ptr %13, i64 120
  %.val16 = load i32, ptr %28, align 8, !tbaa !25
  %29 = add i32 %.val16, -1
  %30 = mul i32 %27, 41
  %.02310.i.i = and i32 %29, %30
  %31 = zext i32 %.02310.i.i to i64
  %32 = getelementptr inbounds nuw i32, ptr %.val15, i64 %31
  %33 = load i32, ptr %32, align 4, !tbaa !31
  %34 = icmp eq i32 %33, %27
  br i1 %34, label %_ZNK4absl24synchronization_internal12_GLOBAL__N_17NodeSet9FindIndexEi.exit.thread.i, label %.lr.ph.i.i

.lr.ph.i.i:                                       ; preds = %25, %38
  %35 = phi i32 [ %42, %38 ], [ %33, %25 ]
  %.02313.i.i = phi i32 [ %.023.i.i, %38 ], [ %.02310.i.i, %25 ]
  %.01812.i.i = phi i8 [ %.2.i.i, %38 ], [ 0, %25 ]
  %.02011.i.i = phi i32 [ %.222.i.i, %38 ], [ 0, %25 ]
  switch i32 %35, label %38 [
    i32 -1, label %_ZNK4absl24synchronization_internal12_GLOBAL__N_17NodeSet9FindIndexEi.exit.i
    i32 -2, label %36
  ]

36:                                               ; preds = %.lr.ph.i.i
  %37 = trunc nuw i8 %.01812.i.i to i1
  %spec.select.i.i = select i1 %37, i32 %.02011.i.i, i32 %.02313.i.i
  br label %38

38:                                               ; preds = %36, %.lr.ph.i.i
  %.222.i.i = phi i32 [ %.02011.i.i, %.lr.ph.i.i ], [ %spec.select.i.i, %36 ]
  %.2.i.i = phi i8 [ %.01812.i.i, %.lr.ph.i.i ], [ 1, %36 ]
  %39 = add i32 %.02313.i.i, 1
  %.023.i.i = and i32 %39, %29
  %40 = zext i32 %.023.i.i to i64
  %41 = getelementptr inbounds nuw i32, ptr %.val15, i64 %40
  %42 = load i32, ptr %41, align 4, !tbaa !31
  %43 = icmp eq i32 %42, %27
  br i1 %43, label %_ZNK4absl24synchronization_internal12_GLOBAL__N_17NodeSet9FindIndexEi.exit.thread.i, label %.lr.ph.i.i, !llvm.loop !45

_ZNK4absl24synchronization_internal12_GLOBAL__N_17NodeSet9FindIndexEi.exit.i: ; preds = %.lr.ph.i.i
  %44 = trunc nuw i8 %.01812.i.i to i1
  %45 = select i1 %44, i32 %.02011.i.i, i32 %.02313.i.i
  %.pre.i = zext i32 %45 to i64
  %.phi.trans.insert.i = getelementptr inbounds nuw i32, ptr %.val15, i64 %.pre.i
  %.pre7.i = load i32, ptr %.phi.trans.insert.i, align 4, !tbaa !31
  %46 = icmp eq i32 %.pre7.i, %27
  br i1 %46, label %_ZNK4absl24synchronization_internal12_GLOBAL__N_17NodeSet9FindIndexEi.exit.thread.i, label %_ZN4absl24synchronization_internal12_GLOBAL__N_17NodeSet5eraseEi.exit

_ZNK4absl24synchronization_internal12_GLOBAL__N_17NodeSet9FindIndexEi.exit.thread.i: ; preds = %38, %_ZNK4absl24synchronization_internal12_GLOBAL__N_17NodeSet9FindIndexEi.exit.i, %25
  %.pre-phi9.i = phi i64 [ %.pre.i, %_ZNK4absl24synchronization_internal12_GLOBAL__N_17NodeSet9FindIndexEi.exit.i ], [ %31, %25 ], [ %40, %38 ]
  %47 = getelementptr inbounds nuw i32, ptr %.val15, i64 %.pre-phi9.i
  store i32 -2, ptr %47, align 4, !tbaa !31
  br label %_ZN4absl24synchronization_internal12_GLOBAL__N_17NodeSet5eraseEi.exit

_ZN4absl24synchronization_internal12_GLOBAL__N_17NodeSet5eraseEi.exit: ; preds = %_ZNK4absl24synchronization_internal12_GLOBAL__N_17NodeSet9FindIndexEi.exit.i, %_ZNK4absl24synchronization_internal12_GLOBAL__N_17NodeSet9FindIndexEi.exit.thread.i
  %48 = getelementptr inbounds nuw i8, ptr %22, i64 24
  %49 = trunc i64 %1 to i32
  %.val = load ptr, ptr %48, align 8
  %50 = getelementptr i8, ptr %22, i64 64
  %.val14 = load i32, ptr %50, align 8, !tbaa !25
  %51 = add i32 %.val14, -1
  %52 = mul i32 %49, 41
  %.02310.i.i19 = and i32 %51, %52
  %53 = zext i32 %.02310.i.i19 to i64
  %54 = getelementptr inbounds nuw i32, ptr %.val, i64 %53
  %55 = load i32, ptr %54, align 4, !tbaa !31
  %56 = icmp eq i32 %55, %49
  br i1 %56, label %_ZNK4absl24synchronization_internal12_GLOBAL__N_17NodeSet9FindIndexEi.exit.thread.i28, label %.lr.ph.i.i20

.lr.ph.i.i20:                                     ; preds = %_ZN4absl24synchronization_internal12_GLOBAL__N_17NodeSet5eraseEi.exit, %60
  %57 = phi i32 [ %64, %60 ], [ %55, %_ZN4absl24synchronization_internal12_GLOBAL__N_17NodeSet5eraseEi.exit ]
  %.02313.i.i21 = phi i32 [ %.023.i.i27, %60 ], [ %.02310.i.i19, %_ZN4absl24synchronization_internal12_GLOBAL__N_17NodeSet5eraseEi.exit ]
  %.01812.i.i22 = phi i8 [ %.2.i.i26, %60 ], [ 0, %_ZN4absl24synchronization_internal12_GLOBAL__N_17NodeSet5eraseEi.exit ]
  %.02011.i.i23 = phi i32 [ %.222.i.i25, %60 ], [ 0, %_ZN4absl24synchronization_internal12_GLOBAL__N_17NodeSet5eraseEi.exit ]
  switch i32 %57, label %60 [
    i32 -1, label %_ZNK4absl24synchronization_internal12_GLOBAL__N_17NodeSet9FindIndexEi.exit.i30
    i32 -2, label %58
  ]

58:                                               ; preds = %.lr.ph.i.i20
  %59 = trunc nuw i8 %.01812.i.i22 to i1
  %spec.select.i.i24 = select i1 %59, i32 %.02011.i.i23, i32 %.02313.i.i21
  br label %60

60:                                               ; preds = %58, %.lr.ph.i.i20
  %.222.i.i25 = phi i32 [ %.02011.i.i23, %.lr.ph.i.i20 ], [ %spec.select.i.i24, %58 ]
  %.2.i.i26 = phi i8 [ %.01812.i.i22, %.lr.ph.i.i20 ], [ 1, %58 ]
  %61 = add i32 %.02313.i.i21, 1
  %.023.i.i27 = and i32 %61, %51
  %62 = zext i32 %.023.i.i27 to i64
  %63 = getelementptr inbounds nuw i32, ptr %.val, i64 %62
  %64 = load i32, ptr %63, align 4, !tbaa !31
  %65 = icmp eq i32 %64, %49
  br i1 %65, label %_ZNK4absl24synchronization_internal12_GLOBAL__N_17NodeSet9FindIndexEi.exit.thread.i28, label %.lr.ph.i.i20, !llvm.loop !45

_ZNK4absl24synchronization_internal12_GLOBAL__N_17NodeSet9FindIndexEi.exit.i30: ; preds = %.lr.ph.i.i20
  %66 = trunc nuw i8 %.01812.i.i22 to i1
  %67 = select i1 %66, i32 %.02011.i.i23, i32 %.02313.i.i21
  %.pre.i31 = zext i32 %67 to i64
  %.phi.trans.insert.i32 = getelementptr inbounds nuw i32, ptr %.val, i64 %.pre.i31
  %.pre7.i33 = load i32, ptr %.phi.trans.insert.i32, align 4, !tbaa !31
  %68 = icmp eq i32 %.pre7.i33, %49
  br i1 %68, label %_ZNK4absl24synchronization_internal12_GLOBAL__N_17NodeSet9FindIndexEi.exit.thread.i28, label %_ZN4absl24synchronization_internal12_GLOBAL__N_17NodeSet5eraseEi.exit34

_ZNK4absl24synchronization_internal12_GLOBAL__N_17NodeSet9FindIndexEi.exit.thread.i28: ; preds = %60, %_ZNK4absl24synchronization_internal12_GLOBAL__N_17NodeSet9FindIndexEi.exit.i30, %_ZN4absl24synchronization_internal12_GLOBAL__N_17NodeSet5eraseEi.exit
  %.pre-phi9.i29 = phi i64 [ %.pre.i31, %_ZNK4absl24synchronization_internal12_GLOBAL__N_17NodeSet9FindIndexEi.exit.i30 ], [ %53, %_ZN4absl24synchronization_internal12_GLOBAL__N_17NodeSet5eraseEi.exit ], [ %62, %60 ]
  %69 = getelementptr inbounds nuw i32, ptr %.val, i64 %.pre-phi9.i29
  store i32 -2, ptr %69, align 4, !tbaa !31
  br label %_ZN4absl24synchronization_internal12_GLOBAL__N_17NodeSet5eraseEi.exit34

_ZN4absl24synchronization_internal12_GLOBAL__N_17NodeSet5eraseEi.exit34: ; preds = %_ZNK4absl24synchronization_internal12_GLOBAL__N_17NodeSet9FindIndexEi.exit.thread.i28, %_ZNK4absl24synchronization_internal12_GLOBAL__N_17NodeSet9FindIndexEi.exit.i30, %3
  ret void
}